(iengine
Engine
p0
(dp1
S'argParser'
p2
(iargParser
ArgParser
p3
(dp4
S'logger'
p5
(ilogger
Logger
p6
(dp7
S'outputPath'
p8
S'analysis/lazarus/lazarus_job_status.log'
p9
sS'verbosityLevel'
p10
S'analysis/lazarus/TwR.log'
p11
sbsS'args'
p12
(lp13
S'/bigdata/andrey/TAT/.snakemake/conda/c7f144feb64c8fa793315f91fa0c80ad_/bin/lazarus.py'
p14
aS'--alignment'
p15
aS'analysis/lazarus/TwR.mafft.fasta'
p16
aS'--tree'
p17
aS'analysis/beast2/beast_linked_models.raxml.bestTree.rooted'
p18
aS'--codeml'
p19
aS'--model'
p20
aS'/bigdata/andrey/TAT/.snakemake/conda/c7f144feb64c8fa793315f91fa0c80ad_/dat/lg.dat'
p21
aS'--asrv'
p22
aS'4'
p23
aS'--fix_asrv'
p24
aS'False'
p25
aS'--branch_lengths'
p26
aS'fixed'
p27
aS'--outputdir'
p28
aS'analysis/lazarus'
p29
aS'--verbose'
p30
ag11
asbsg5
(ilogger
Logger
p31
(dp32
g8
S'analysis/lazarus/lazarus_job_status.log'
p33
sg10
g11
sbsS'data'
p34
(idataWharehouse
DataWharehouse
p35
(dp36
g2
g3
sS'trees'
p37
(dp38
I1
(itree
Tree
p39
(dp40
S'temporary_tree_object'
p41
NsS'newickString'
p42
S'(((EBO12744.1: 0.230880, (OM-RGC.v2.015137236.2: 0.017728, OceanDNA-b25611@OceanDNA-b25611_00006_13: 0.006084): 0.007646): 0.293653, (((SAMEA2623116_2402565_6: 0.012347, OceanDNA-b25685@OceanDNA-b25685_00021_13: 0.012331): 0.000001, OceanDNA-b25652@OceanDNA-b25652_00061_3: 0.042124): 0.156436, SAMEA2623116_2556763: 0.235834): 0.075738): 0.147655, (((GCA_000163555.2@EMH79960.1: 0.000001, (SAMEA2619766_9993_9: 0.016553, OceanDNA-b25508@OceanDNA-b25508_00154_3: 0.024711): 0.046135): 0.303366, (((ECO62707.1: 0.031560, EBU83961.1: 0.021711): 0.046872, (OceanDNA-b25529@OceanDNA-b25529_00008_3: 0.011667, OceanDNA-b25524@OceanDNA-b25524_00164_3: 0.000001): 0.058110): 0.118172, (SAMEA2619766_6745_13: 0.050915, OceanDNA-b25506@OceanDNA-b25506_00047_5: 0.094176): 0.051673): 0.036350): 0.163927, (GCA_002691705.1@NZIR01000010.1_42: 0.016596, GCA_902517865.1@CABYDT010000004.1_93: 0.011308): 0.338253): 0.058852);'
p43
sS'postprob'
p44
F1.0
sS'lnL'
p45
F-3138.424373
sS'treeviewString'
p46
S'(((EBO12744.1, (OM-RGC.v2.015137236.2, OceanDNA-b25611@OceanDNA-b25611_00006_13) 22 ) 21 , (((SAMEA2623116_2402565_6, OceanDNA-b25685@OceanDNA-b25685_00021_13) 25 , OceanDNA-b25652@OceanDNA-b25652_00061_3) 24 , SAMEA2623116_2556763) 23 ) 20 , (((GCA_000163555.2@EMH79960.1, (SAMEA2619766_9993_9, OceanDNA-b25508@OceanDNA-b25508_00154_3) 29 ) 28 , (((ECO62707.1, EBU83961.1) 32 , (OceanDNA-b25529@OceanDNA-b25529_00008_3, OceanDNA-b25524@OceanDNA-b25524_00164_3) 33 ) 31 , (SAMEA2619766_6745_13, OceanDNA-b25506@OceanDNA-b25506_00047_5) 34 ) 30 ) 27 , (GCA_002691705.1@NZIR01000010.1_42, GCA_902517865.1@CABYDT010000004.1_93) 35 ) 26 ) 19 ;'
p47
sS'treeNumber'
p48
I1
sS'exclude'
p49
I00
sS'nodes'
p50
(dp51
sS'temporary_states'
p52
(dp53
sbssbsS'pamljobs'
p54
(dp55
I1
(ipamlJob
CodemlJob
p56
(dp57
S'ncat_gamma'
p58
F4.0
sS'cleandata'
p59
I0
sS'estimate_branch_lengths'
p60
I00
sS'treePath'
p61
S'analysis/lazarus/tree1/pamlWorkspace/reformatted_tree.tre'
p62
sS'alpha'
p63
F1.0
sS'modelPath'
p64
S'analysis/lazarus/tree1/pamlWorkspace/model.dat'
p65
sS'fix_asrv'
p66
I01
sS'outputDirectory'
p67
S'analysis/lazarus/tree1/pamlWorkspace'
p68
sg48
I1
sS'controlPath'
p69
S'analysis/lazarus/tree1/pamlWorkspace/codeml.ctl'
p70
sS'alignmentPath'
p71
S'analysis/lazarus/tree1/pamlWorkspace/reformatted_alignment.phy'
p72
sS'among_site_rate_variation'
p73
I01
sS'executionDirectory'
p74
g68
sbssb.